
a.out:     file format elf32-littlearm

Disassembly of section .text:

00008000 <_start>:
    8000:	eb000000 	bl	8008 <main>

00008004 <_exit>:
    8004:	eafffffe 	b	8004 <_exit>

00008008 <main>:
    8008:	e1a0c00d 	mov	ip, sp
    800c:	e92dd800 	stmdb	sp!, {fp, ip, lr, pc}
    8010:	e24cb004 	sub	fp, ip, #4	; 0x4
    8014:	e3a00008 	mov	r0, #8	; 0x8
    8018:	eb000000 	bl	8020 <binary_search>
    801c:	e89da800 	ldmia	sp, {fp, sp, pc}

00008020 <binary_search>:
    8020:	e1a0c00d 	mov	ip, sp
    8024:	e92dd800 	stmdb	sp!, {fp, ip, lr, pc}
    8028:	e24cb004 	sub	fp, ip, #4	; 0x4
    802c:	e24dd014 	sub	sp, sp, #20	; 0x14
    8030:	e50b0020 	str	r0, [fp, #-32]
    8034:	e3a03000 	mov	r3, #0	; 0x0
    8038:	e50b3010 	str	r3, [fp, #-16]
    803c:	e3a0300e 	mov	r3, #14	; 0xe
    8040:	e50b3014 	str	r3, [fp, #-20]
    8044:	e3e03000 	mvn	r3, #0	; 0x0
    8048:	e50b301c 	str	r3, [fp, #-28]
    804c:	ea000023 	b	80e0 <binary_search+0xc0>
    8050:	e51b2010 	ldr	r2, [fp, #-16]
    8054:	e51b3014 	ldr	r3, [fp, #-20]
    8058:	e0823003 	add	r3, r2, r3
    805c:	e1a030c3 	mov	r3, r3, asr #1
    8060:	e50b3018 	str	r3, [fp, #-24]
    8064:	e51b2018 	ldr	r2, [fp, #-24]
    8068:	e59f3090 	ldr	r3, [pc, #144]	; 8100 <.text+0x100>
    806c:	e7932182 	ldr	r2, [r3, r2, lsl #3]
    8070:	e51b3020 	ldr	r3, [fp, #-32]
    8074:	e1520003 	cmp	r2, r3
    8078:	1a00000b 	bne	80ac <binary_search+0x8c>
    807c:	e51b3010 	ldr	r3, [fp, #-16]
    8080:	e2433001 	sub	r3, r3, #1	; 0x1
    8084:	e50b3014 	str	r3, [fp, #-20]
    8088:	e51b3018 	ldr	r3, [fp, #-24]
    808c:	e59f206c 	ldr	r2, [pc, #108]	; 8100 <.text+0x100>
    8090:	e3a01004 	mov	r1, #4	; 0x4
    8094:	e1a03183 	mov	r3, r3, lsl #3
    8098:	e0833002 	add	r3, r3, r2
    809c:	e0833001 	add	r3, r3, r1
    80a0:	e5933000 	ldr	r3, [r3]
    80a4:	e50b301c 	str	r3, [fp, #-28]
    80a8:	ea00000c 	b	80e0 <binary_search+0xc0>
    80ac:	e51b2018 	ldr	r2, [fp, #-24]
    80b0:	e59f3048 	ldr	r3, [pc, #72]	; 8100 <.text+0x100>
    80b4:	e7932182 	ldr	r2, [r3, r2, lsl #3]
    80b8:	e51b3020 	ldr	r3, [fp, #-32]
    80bc:	e1520003 	cmp	r2, r3
    80c0:	da000003 	ble	80d4 <binary_search+0xb4>
    80c4:	e51b3018 	ldr	r3, [fp, #-24]
    80c8:	e2433001 	sub	r3, r3, #1	; 0x1
    80cc:	e50b3014 	str	r3, [fp, #-20]
    80d0:	ea000002 	b	80e0 <binary_search+0xc0>
    80d4:	e51b3018 	ldr	r3, [fp, #-24]
    80d8:	e2833001 	add	r3, r3, #1	; 0x1
    80dc:	e50b3010 	str	r3, [fp, #-16]
    80e0:	e51b2010 	ldr	r2, [fp, #-16]
    80e4:	e51b3014 	ldr	r3, [fp, #-20]
    80e8:	e1520003 	cmp	r2, r3
    80ec:	daffffd7 	ble	8050 <binary_search+0x30>
    80f0:	e51b301c 	ldr	r3, [fp, #-28]
    80f4:	e1a00003 	mov	r0, r3
    80f8:	e24bd00c 	sub	sp, fp, #12	; 0xc
    80fc:	e89da800 	ldmia	sp, {fp, sp, pc}
    8100:	00008204 	andeq	r8, r0, r4, lsl #4
